target datalayout = "e-m:e-p270:32:32-p271:32:32-p272:64:64-i64:64-i128:128-f80:128-n8:16:32:64-S128"
target triple = "x86_64-pc-linux-gnu"

%struct.wtap_rec = type { i32, i32, i32, %struct.nstime_t, i32, %struct.nstime_t, i8, %union.anon, ptr, i8, %struct.Buffer, %struct.Buffer }
%struct.nstime_t = type { i64, i32 }
%union.anon = type { %struct.wtap_packet_header }
%struct.wtap_packet_header = type { i32, i32, i32, i32, %union.wtap_pseudo_header }
%union.wtap_pseudo_header = type { %struct.erf_mc_phdr }
%struct.erf_mc_phdr = type { %struct.erf_phdr, [16 x %struct.erf_ehdr], %union.anon.1 }
%struct.erf_phdr = type { i64, i8, i8, i16, i16, i16 }
%struct.erf_ehdr = type { i64 }
%union.anon.1 = type { i32 }
%struct.Buffer = type { ptr, i64, i64, i64 }

@PREEB_BEGIN = hidden constant [12 x i8] c"-----BEGIN \00", align 1
@POSTEB_BEGIN = hidden constant [10 x i8] c"-----END \00", align 1
@.str.1 = private unnamed_addr constant [51 x i8] c"Missing post-encapsulation boundary at end of file\00", align 1
@.str.2 = private unnamed_addr constant [62 x i8] c"File contains an encoding larger than the maximum of %d bytes\00", align 1

; Function Attrs: inlinehint nounwind null_pointer_is_valid sspstrong uwtable
define internal i64 @ws_buffer_length(ptr noundef %0) #4 {
  %2 = alloca ptr, align 8
  store ptr %0, ptr %2, align 8
  %3 = load ptr, ptr %2, align 8
  %4 = getelementptr inbounds nuw %struct.Buffer, ptr %3, i32 0, i32 3
  %5 = load i64, ptr %4, align 8
  %6 = load ptr, ptr %2, align 8
  %7 = getelementptr inbounds nuw %struct.Buffer, ptr %6, i32 0, i32 2
  %8 = load i64, ptr %7, align 8
  %9 = sub i64 %5, %8
  ret i64 %9
}

; Function Attrs: null_pointer_is_valid sspstrong uwtable
define internal zeroext i1 @rfc7468_read_line(ptr noundef %0, ptr noundef %1, ptr noundef %2, ptr noundef %3, ptr noundef %4) #0 {
  %6 = alloca i1, align 1
  %7 = alloca ptr, align 8
  %8 = alloca ptr, align 8
  %9 = alloca ptr, align 8
  %10 = alloca ptr, align 8
  %11 = alloca ptr, align 8
  %12 = alloca [131 x i8], align 16
  %13 = alloca ptr, align 8
  %14 = alloca i32, align 4
  %15 = alloca i64, align 8
  store ptr %0, ptr %7, align 8
  store ptr %1, ptr %8, align 8
  store ptr %2, ptr %9, align 8
  store ptr %3, ptr %10, align 8
  store ptr %4, ptr %11, align 8
  call void @llvm.lifetime.start.p0(i64 131, ptr %12) #5
  call void @llvm.lifetime.start.p0(i64 8, ptr %13) #5
  %16 = getelementptr inbounds [131 x i8], ptr %12, i64 0, i64 0
  %17 = load ptr, ptr %7, align 8
  %18 = call ptr @file_getsp(ptr noundef %16, i32 noundef 131, ptr noundef %17)
  store ptr %18, ptr %13, align 8
  %19 = icmp ne ptr %18, null
  br i1 %19, label %25, label %20

20:                                               ; preds = %5
  %21 = load ptr, ptr %7, align 8
  %22 = load ptr, ptr %11, align 8
  %23 = call i32 @file_error(ptr noundef %21, ptr noundef %22)
  %24 = load ptr, ptr %10, align 8
  store i32 %23, ptr %24, align 4
  store i1 false, ptr %6, align 1
  store i32 1, ptr %14, align 4
  br label %85

25:                                               ; preds = %5
  %26 = getelementptr inbounds [131 x i8], ptr %12, i64 0, i64 0
  %27 = call i32 @memcmp(ptr noundef %26, ptr noundef @PREEB_BEGIN, i64 noundef 11) #6
  %28 = icmp eq i32 %27, 0
  br i1 %28, label %29, label %31

29:                                               ; preds = %25
  %30 = load ptr, ptr %8, align 8
  store i32 0, ptr %30, align 4
  br label %40

31:                                               ; preds = %25
  %32 = getelementptr inbounds [131 x i8], ptr %12, i64 0, i64 0
  %33 = call i32 @memcmp(ptr noundef %32, ptr noundef @POSTEB_BEGIN, i64 noundef 9) #6
  %34 = icmp eq i32 %33, 0
  br i1 %34, label %35, label %37

35:                                               ; preds = %31
  %36 = load ptr, ptr %8, align 8
  store i32 1, ptr %36, align 4
  br label %39

37:                                               ; preds = %31
  %38 = load ptr, ptr %8, align 8
  store i32 2, ptr %38, align 4
  br label %39

39:                                               ; preds = %37, %35
  br label %40

40:                                               ; preds = %39, %29
  br label %41

41:                                               ; preds = %83, %40
  call void @llvm.lifetime.start.p0(i64 8, ptr %15) #5
  %42 = load ptr, ptr %13, align 8
  %43 = getelementptr inbounds [131 x i8], ptr %12, i64 0, i64 0
  %44 = ptrtoint ptr %42 to i64
  %45 = ptrtoint ptr %43 to i64
  %46 = sub i64 %44, %45
  store i64 %46, ptr %15, align 8
  %47 = load i64, ptr %15, align 8
  %48 = load ptr, ptr %9, align 8
  %49 = call i64 @ws_buffer_length(ptr noundef %48)
  %50 = sub i64 2147483647, %49
  %51 = icmp ugt i64 %47, %50
  br i1 %51, label %52, label %56

52:                                               ; preds = %41
  %53 = load ptr, ptr %10, align 8
  store i32 -13, ptr %53, align 4
  %54 = call noalias ptr (ptr, ...) @g_strdup_printf(ptr noundef @.str.2, i32 noundef 2147483647)
  %55 = load ptr, ptr %11, align 8
  store ptr %54, ptr %55, align 8
  store i1 false, ptr %6, align 1
  store i32 1, ptr %14, align 4
  br label %81

56:                                               ; preds = %41
  %57 = load ptr, ptr %9, align 8
  %58 = getelementptr inbounds [131 x i8], ptr %12, i64 0, i64 0
  %59 = load i64, ptr %15, align 8
  call void @ws_buffer_append(ptr noundef %57, ptr noundef %58, i64 noundef %59)
  %60 = load ptr, ptr %13, align 8
  %61 = getelementptr i8, ptr %60, i64 -1
  %62 = load i8, ptr %61, align 1
  %63 = sext i8 %62 to i32
  %64 = icmp eq i32 %63, 10
  br i1 %64, label %69, label %65

65:                                               ; preds = %56
  %66 = load ptr, ptr %7, align 8
  %67 = call i32 @file_eof(ptr noundef %66)
  %68 = icmp ne i32 %67, 0
  br i1 %68, label %69, label %70

69:                                               ; preds = %65, %56
  store i32 2, ptr %14, align 4
  br label %81

70:                                               ; preds = %65
  %71 = getelementptr inbounds [131 x i8], ptr %12, i64 0, i64 0
  %72 = load ptr, ptr %7, align 8
  %73 = call ptr @file_getsp(ptr noundef %71, i32 noundef 131, ptr noundef %72)
  store ptr %73, ptr %13, align 8
  %74 = icmp ne ptr %73, null
  br i1 %74, label %80, label %75

75:                                               ; preds = %70
  %76 = load ptr, ptr %7, align 8
  %77 = load ptr, ptr %11, align 8
  %78 = call i32 @file_error(ptr noundef %76, ptr noundef %77)
  %79 = load ptr, ptr %10, align 8
  store i32 %78, ptr %79, align 4
  store i1 false, ptr %6, align 1
  store i32 1, ptr %14, align 4
  br label %81

80:                                               ; preds = %70
  store i32 0, ptr %14, align 4
  br label %81

81:                                               ; preds = %80, %75, %69, %52
  call void @llvm.lifetime.end.p0(i64 8, ptr %15) #5
  %82 = load i32, ptr %14, align 4
  switch i32 %82, label %85 [
    i32 0, label %83
    i32 2, label %84
  ]

83:                                               ; preds = %81
  br label %41

84:                                               ; preds = %81
  store i1 true, ptr %6, align 1
  store i32 1, ptr %14, align 4
  br label %85

85:                                               ; preds = %84, %81, %20
  call void @llvm.lifetime.end.p0(i64 8, ptr %13) #5
  call void @llvm.lifetime.end.p0(i64 131, ptr %12) #5
  %86 = load i1, ptr %6, align 1
  ret i1 %86
}

; Function Attrs: inlinehint nounwind null_pointer_is_valid sspstrong uwtable
define internal void @ws_buffer_clean(ptr noundef %0) #4 {
  %2 = alloca ptr, align 8
  store ptr %0, ptr %2, align 8
  %3 = load ptr, ptr %2, align 8
  %4 = getelementptr inbounds nuw %struct.Buffer, ptr %3, i32 0, i32 2
  store i64 0, ptr %4, align 8
  %5 = load ptr, ptr %2, align 8
  %6 = getelementptr inbounds nuw %struct.Buffer, ptr %5, i32 0, i32 3
  store i64 0, ptr %6, align 8
  ret void
}

; Function Attrs: null_pointer_is_valid sspstrong uwtable
define internal zeroext i1 @rfc7468_read_impl(ptr noundef %0, ptr noundef %1, ptr noundef %2, ptr noundef %3) #0 {
  %5 = alloca i1, align 1
  %6 = alloca ptr, align 8
  %7 = alloca ptr, align 8
  %8 = alloca ptr, align 8
  %9 = alloca ptr, align 8
  %10 = alloca i8, align 1
  %11 = alloca i32, align 4
  %12 = alloca i32, align 4
  store ptr %0, ptr %6, align 8
  store ptr %1, ptr %7, align 8
  store ptr %2, ptr %8, align 8
  store ptr %3, ptr %9, align 8
  %13 = load ptr, ptr %7, align 8
  %14 = getelementptr inbounds nuw %struct.wtap_rec, ptr %13, i32 0, i32 11
  call void @ws_buffer_clean(ptr noundef %14)
  call void @llvm.lifetime.start.p0(i64 1, ptr %10) #5
  store i8 0, ptr %10, align 1
  br label %15

15:                                               ; preds = %50, %4
  call void @llvm.lifetime.start.p0(i64 4, ptr %11) #5
  %16 = load ptr, ptr %6, align 8
  %17 = load ptr, ptr %7, align 8
  %18 = getelementptr inbounds nuw %struct.wtap_rec, ptr %17, i32 0, i32 11
  %19 = load ptr, ptr %8, align 8
  %20 = load ptr, ptr %9, align 8
  %21 = call zeroext i1 @rfc7468_read_line(ptr noundef %16, ptr noundef %11, ptr noundef %18, ptr noundef %19, ptr noundef %20)
  br i1 %21, label %34, label %22

22:                                               ; preds = %15
  %23 = load ptr, ptr %8, align 8
  %24 = load i32, ptr %23, align 4
  %25 = icmp ne i32 %24, 0
  br i1 %25, label %29, label %26

26:                                               ; preds = %22
  %27 = load i8, ptr %10, align 1, !range !6, !noundef !7
  %28 = trunc i8 %27 to i1
  br i1 %28, label %30, label %29

29:                                               ; preds = %26, %22
  store i1 false, ptr %5, align 1
  store i32 1, ptr %12, align 4
  br label %48

30:                                               ; preds = %26
  %31 = load ptr, ptr %8, align 8
  store i32 -13, ptr %31, align 4
  %32 = call noalias ptr @g_strdup(ptr noundef @.str.1)
  %33 = load ptr, ptr %9, align 8
  store ptr %32, ptr %33, align 8
  store i1 false, ptr %5, align 1
  store i32 1, ptr %12, align 4
  br label %48

34:                                               ; preds = %15
  %35 = load i8, ptr %10, align 1, !range !6, !noundef !7
  %36 = trunc i8 %35 to i1
  br i1 %36, label %37, label %42

37:                                               ; preds = %34
  %38 = load i32, ptr %11, align 4
  %39 = icmp eq i32 %38, 1
  br i1 %39, label %40, label %41

40:                                               ; preds = %37
  store i32 2, ptr %12, align 4
  br label %48

41:                                               ; preds = %37
  br label %47

42:                                               ; preds = %34
  %43 = load i32, ptr %11, align 4
  %44 = icmp eq i32 %43, 0
  br i1 %44, label %45, label %46

45:                                               ; preds = %42
  store i8 1, ptr %10, align 1
  br label %46

46:                                               ; preds = %45, %42
  br label %47

47:                                               ; preds = %46, %41
  store i32 0, ptr %12, align 4
  br label %48

48:                                               ; preds = %47, %40, %30, %29
  call void @llvm.lifetime.end.p0(i64 4, ptr %11) #5
  %49 = load i32, ptr %12, align 4
  switch i32 %49, label %76 [
    i32 0, label %50
    i32 2, label %51
  ]

50:                                               ; preds = %48
  br label %15

51:                                               ; preds = %48
  %52 = load ptr, ptr %7, align 8
  %53 = getelementptr inbounds nuw %struct.wtap_rec, ptr %52, i32 0, i32 0
  store i32 0, ptr %53, align 8
  %54 = load ptr, ptr %7, align 8
  %55 = getelementptr inbounds nuw %struct.wtap_rec, ptr %54, i32 0, i32 1
  store i32 0, ptr %55, align 4
  %56 = load ptr, ptr %7, align 8
  %57 = getelementptr inbounds nuw %struct.wtap_rec, ptr %56, i32 0, i32 3
  %58 = getelementptr inbounds nuw %struct.nstime_t, ptr %57, i32 0, i32 0
  store i64 0, ptr %58, align 8
  %59 = load ptr, ptr %7, align 8
  %60 = getelementptr inbounds nuw %struct.wtap_rec, ptr %59, i32 0, i32 3
  %61 = getelementptr inbounds nuw %struct.nstime_t, ptr %60, i32 0, i32 1
  store i32 0, ptr %61, align 8
  %62 = load ptr, ptr %7, align 8
  %63 = getelementptr inbounds nuw %struct.wtap_rec, ptr %62, i32 0, i32 11
  %64 = call i64 @ws_buffer_length(ptr noundef %63)
  %65 = trunc i64 %64 to i32
  %66 = load ptr, ptr %7, align 8
  %67 = getelementptr inbounds nuw %struct.wtap_rec, ptr %66, i32 0, i32 7
  %68 = getelementptr inbounds nuw %struct.wtap_packet_header, ptr %67, i32 0, i32 0
  store i32 %65, ptr %68, align 8
  %69 = load ptr, ptr %7, align 8
  %70 = getelementptr inbounds nuw %struct.wtap_rec, ptr %69, i32 0, i32 11
  %71 = call i64 @ws_buffer_length(ptr noundef %70)
  %72 = trunc i64 %71 to i32
  %73 = load ptr, ptr %7, align 8
  %74 = getelementptr inbounds nuw %struct.wtap_rec, ptr %73, i32 0, i32 7
  %75 = getelementptr inbounds nuw %struct.wtap_packet_header, ptr %74, i32 0, i32 1
  store i32 %72, ptr %75, align 4
  store i1 true, ptr %5, align 1
  store i32 1, ptr %12, align 4
  br label %76

76:                                               ; preds = %51, %48
  call void @llvm.lifetime.end.p0(i64 1, ptr %10) #5
  %77 = load i1, ptr %5, align 1
  ret i1 %77
}