; Function Attrs: null_pointer_is_valid sspstrong uwtable
define internal fastcc noundef zeroext i1 @rfc7468_read_impl(ptr noundef %0, ptr noundef initializes((296, 312)) %1, ptr noundef captures(none) %2, ptr noundef %3) unnamed_addr #0 {
  %5 = alloca [131 x i8], align 16
  %6 = getelementptr inbounds nuw i8, ptr %1, i64 280
  %7 = getelementptr inbounds nuw i8, ptr %1, i64 296
  tail call void @llvm.memset.p0.i64(ptr noundef nonnull align 8 dereferenceable(16) %7, i8 0, i64 16, i1 false)
  call void @llvm.lifetime.start.p0(i64 131, ptr nonnull %5) #6
  %8 = call ptr @file_getsp(ptr noundef nonnull %5, i32 noundef 131, ptr noundef %0)
  %.not.i44 = icmp eq ptr %8, null
  br i1 %.not.i44, label %._crit_edge, label %.lr.ph

.lr.ph:                                           ; preds = %4
  %9 = ptrtoint ptr %5 to i64
  %10 = getelementptr i8, ptr %1, i64 304
  br label %12

._crit_edge:                                      ; preds = %47, %4
  %.019.lcssa = phi i8 [ 0, %4 ], [ %.1, %47 ]
  %11 = call i32 @file_error(ptr noundef %0, ptr noundef %3)
  store i32 %11, ptr %2, align 4
  br label %35

12:                                               ; preds = %.lr.ph, %47
  %13 = phi ptr [ %8, %.lr.ph ], [ %48, %47 ]
  %.01945 = phi i8 [ 0, %.lr.ph ], [ %.1, %47 ]
  %bcmp.i = call i32 @bcmp(ptr noundef nonnull dereferenceable(11) %5, ptr noundef nonnull dereferenceable(11) @PREEB_BEGIN, i64 11)
  %14 = icmp eq i32 %bcmp.i, 0
  br i1 %14, label %17, label %15

15:                                               ; preds = %12
  %bcmp28.i = call i32 @bcmp(ptr noundef nonnull dereferenceable(9) %5, ptr noundef nonnull dereferenceable(9) @POSTEB_BEGIN, i64 9)
  %16 = icmp eq i32 %bcmp28.i, 0
  %..i = select i1 %16, i32 1, i32 2
  br label %17

17:                                               ; preds = %15, %12
  %.sink.i = phi i32 [ 0, %12 ], [ %..i, %15 ]
  br label %18

18:                                               ; preds = %31, %17
  %.022.i = phi ptr [ %13, %17 ], [ %32, %31 ]
  %19 = ptrtoint ptr %.022.i to i64
  %20 = sub i64 %19, %9
  %.val.i = load i64, ptr %7, align 8
  %.val31.i = load i64, ptr %10, align 8
  %.neg.i = add i64 %.val.i, 2147483647
  %21 = sub i64 %.neg.i, %.val31.i
  %22 = icmp ugt i64 %20, %21
  br i1 %22, label %23, label %25

23:                                               ; preds = %18
  store i32 -13, ptr %2, align 4
  %24 = call noalias ptr (ptr, ...) @g_strdup_printf(ptr noundef nonnull @.str.2, i32 noundef 2147483647)
  store ptr %24, ptr %3, align 8
  %.pr = load i32, ptr %2, align 4
  br label %35

25:                                               ; preds = %18
  call void @ws_buffer_append(ptr noundef nonnull %6, ptr noundef nonnull %5, i64 noundef %20)
  %26 = getelementptr i8, ptr %.022.i, i64 -1
  %27 = load i8, ptr %26, align 1
  %28 = icmp eq i8 %27, 10
  br i1 %28, label %41, label %29

29:                                               ; preds = %25
  %30 = call i32 @file_eof(ptr noundef %0)
  %.not29.i = icmp eq i32 %30, 0
  br i1 %.not29.i, label %31, label %41

31:                                               ; preds = %29
  %32 = call ptr @file_getsp(ptr noundef nonnull %5, i32 noundef 131, ptr noundef %0)
  %.not30.i = icmp eq ptr %32, null
  br i1 %.not30.i, label %33, label %18

33:                                               ; preds = %31
  %34 = call i32 @file_error(ptr noundef %0, ptr noundef %3)
  store i32 %34, ptr %2, align 4
  br label %35

35:                                               ; preds = %._crit_edge, %23, %33
  %.01943 = phi i8 [ %.019.lcssa, %._crit_edge ], [ %.01945, %23 ], [ %.01945, %33 ]
  %36 = phi i32 [ %11, %._crit_edge ], [ %.pr, %23 ], [ %34, %33 ]
  call void @llvm.lifetime.end.p0(i64 131, ptr nonnull %5) #6
  %.not = icmp eq i32 %36, 0
  br i1 %.not, label %37, label %.thread

37:                                               ; preds = %35
  %38 = trunc nuw i8 %.01943 to i1
  br i1 %38, label %39, label %.thread

39:                                               ; preds = %37
  store i32 -13, ptr %2, align 4
  %40 = call noalias ptr @g_strdup(ptr noundef nonnull @.str.1)
  store ptr %40, ptr %3, align 8
  br label %.thread

41:                                               ; preds = %29, %25
  call void @llvm.lifetime.end.p0(i64 131, ptr nonnull %5) #6
  %42 = trunc nuw i8 %.01945 to i1
  br i1 %42, label %43, label %45

43:                                               ; preds = %41
  %44 = icmp eq i32 %.sink.i, 1
  br i1 %44, label %49, label %47

45:                                               ; preds = %41
  %46 = icmp eq i32 %.sink.i, 0
  %spec.select = select i1 %46, i8 1, i8 %.01945
  br label %47

47:                                               ; preds = %43, %45
  %.1 = phi i8 [ %spec.select, %45 ], [ 1, %43 ]
  call void @llvm.lifetime.start.p0(i64 131, ptr nonnull %5) #6
  %48 = call ptr @file_getsp(ptr noundef nonnull %5, i32 noundef 131, ptr noundef %0)
  %.not.i = icmp eq ptr %48, null
  br i1 %.not.i, label %._crit_edge, label %12

49:                                               ; preds = %43
  store i32 0, ptr %1, align 8
  %50 = getelementptr inbounds nuw i8, ptr %1, i64 4
  store i32 0, ptr %50, align 4
  %51 = getelementptr inbounds nuw i8, ptr %1, i64 16
  store i64 0, ptr %51, align 8
  %52 = getelementptr inbounds nuw i8, ptr %1, i64 24
  store i32 0, ptr %52, align 8
  %.val = load i64, ptr %7, align 8
  %.val24 = load i64, ptr %10, align 8
  %53 = sub i64 %.val24, %.val
  %54 = trunc i64 %53 to i32
  %55 = getelementptr inbounds nuw i8, ptr %1, i64 64
  store i32 %54, ptr %55, align 8
  %56 = getelementptr inbounds nuw i8, ptr %1, i64 68
  store i32 %54, ptr %56, align 4
  br label %.thread

.thread:                                          ; preds = %35, %37, %39, %49
  %.222 = phi i1 [ true, %49 ], [ false, %39 ], [ false, %37 ], [ false, %35 ]
  ret i1 %.222
}